target datalayout = "e-m:e-p270:32:32-p271:32:32-p272:64:64-i64:64-i128:128-f80:128-n8:16:32:64-S128"
target triple = "x86_64-pc-linux-gnu"

%struct._GList = type { ptr, ptr, ptr }

@cfilter_combo_max_recent = internal global i32 20, align 4
@.str.135 = private unnamed_addr constant [27 x i8] c"recent.capture_filter: %s\0A\00", align 1
@.str.136 = private unnamed_addr constant [30 x i8] c"recent.capture_filter.%s: %s\0A\00", align 1

; Function Attrs: null_pointer_is_valid sspstrong uwtable
define internal void @cfilter_recent_write_all_list(ptr noundef %0, ptr noundef %1, ptr noundef %2) #0 {
  %4 = alloca ptr, align 8
  %5 = alloca ptr, align 8
  %6 = alloca ptr, align 8
  %7 = alloca i32, align 4
  %8 = alloca ptr, align 8
  store ptr %0, ptr %4, align 8
  store ptr %1, ptr %5, align 8
  store ptr %2, ptr %6, align 8
  call void @llvm.lifetime.start.p0(i64 4, ptr %7) #13
  store i32 0, ptr %7, align 4
  call void @llvm.lifetime.start.p0(i64 8, ptr %8) #13
  %9 = load ptr, ptr %6, align 8
  %10 = call ptr @g_list_first(ptr noundef %9)
  store ptr %10, ptr %8, align 8
  br label %11

11:                                               ; preds = %49, %3
  %12 = load ptr, ptr %8, align 8
  %13 = icmp ne ptr %12, null
  br i1 %13, label %14, label %19

14:                                               ; preds = %11
  %15 = load i32, ptr %7, align 4
  %16 = add i32 %15, 1
  store i32 %16, ptr %7, align 4
  %17 = load i32, ptr @cfilter_combo_max_recent, align 4
  %18 = icmp ule i32 %15, %17
  br label %19

19:                                               ; preds = %14, %11
  %20 = phi i1 [ false, %11 ], [ %18, %14 ]
  br i1 %20, label %21, label %53

21:                                               ; preds = %19
  %22 = load ptr, ptr %8, align 8
  %23 = getelementptr inbounds nuw %struct._GList, ptr %22, i32 0, i32 0
  %24 = load ptr, ptr %23, align 8
  %25 = icmp ne ptr %24, null
  br i1 %25, label %26, label %49

26:                                               ; preds = %21
  %27 = load ptr, ptr %8, align 8
  %28 = getelementptr inbounds nuw %struct._GList, ptr %27, i32 0, i32 0
  %29 = load ptr, ptr %28, align 8
  %30 = call i64 @strlen(ptr noundef %29) #16
  %31 = icmp ne i64 %30, 0
  br i1 %31, label %32, label %49

32:                                               ; preds = %26
  %33 = load ptr, ptr %5, align 8
  %34 = icmp eq ptr %33, null
  br i1 %34, label %35, label %41

35:                                               ; preds = %32
  %36 = load ptr, ptr %4, align 8
  %37 = load ptr, ptr %8, align 8
  %38 = getelementptr inbounds nuw %struct._GList, ptr %37, i32 0, i32 0
  %39 = load ptr, ptr %38, align 8
  %40 = call i32 (ptr, i32, ptr, ...) @__fprintf_chk(ptr noundef %36, i32 noundef 2, ptr noundef @.str.135, ptr noundef %39)
  br label %48

41:                                               ; preds = %32
  %42 = load ptr, ptr %4, align 8
  %43 = load ptr, ptr %5, align 8
  %44 = load ptr, ptr %8, align 8
  %45 = getelementptr inbounds nuw %struct._GList, ptr %44, i32 0, i32 0
  %46 = load ptr, ptr %45, align 8
  %47 = call i32 (ptr, i32, ptr, ...) @__fprintf_chk(ptr noundef %42, i32 noundef 2, ptr noundef @.str.136, ptr noundef %43, ptr noundef %46)
  br label %48

48:                                               ; preds = %41, %35
  br label %49

49:                                               ; preds = %48, %26, %21
  %50 = load ptr, ptr %8, align 8
  %51 = getelementptr inbounds nuw %struct._GList, ptr %50, i32 0, i32 1
  %52 = load ptr, ptr %51, align 8
  store ptr %52, ptr %8, align 8
  br label %11, !llvm.loop !20

53:                                               ; preds = %19
  call void @llvm.lifetime.end.p0(i64 8, ptr %8) #13
  call void @llvm.lifetime.end.p0(i64 4, ptr %7) #13
  ret void
}

; Function Attrs: null_pointer_is_valid sspstrong uwtable
define internal void @cfilter_recent_write_all_hash_callback(ptr noundef %0, ptr noundef %1, ptr noundef %2) #0 {
  %4 = alloca ptr, align 8
  %5 = alloca ptr, align 8
  %6 = alloca ptr, align 8
  store ptr %0, ptr %4, align 8
  store ptr %1, ptr %5, align 8
  store ptr %2, ptr %6, align 8
  %7 = load ptr, ptr %6, align 8
  %8 = load ptr, ptr %4, align 8
  %9 = load ptr, ptr %5, align 8
  call void @cfilter_recent_write_all_list(ptr noundef %7, ptr noundef %8, ptr noundef %9)
  ret void
}