; Function Attrs: null_pointer_is_valid sspstrong uwtable
define internal void @cfilter_recent_write_all_hash_callback(ptr noundef %0, ptr noundef %1, ptr noundef %2) #0 {
  %4 = tail call ptr @g_list_first(ptr noundef %1)
  %.not16.i = icmp eq ptr %4, null
  br i1 %.not16.i, label %cfilter_recent_write_all_list.exit, label %.lr.ph.i

.lr.ph.i:                                         ; preds = %3
  %5 = icmp eq ptr %0, null
  br i1 %5, label %.lr.ph.split.us.i, label %.lr.ph.split.i

.lr.ph.split.us.i:                                ; preds = %.lr.ph.i, %12
  %.018.us.i = phi ptr [ %14, %12 ], [ %4, %.lr.ph.i ]
  %.01117.us.i = phi i32 [ %6, %12 ], [ 0, %.lr.ph.i ]
  %6 = add nuw nsw i32 %.01117.us.i, 1
  %exitcond21.not.i = icmp eq i32 %.01117.us.i, 21
  br i1 %exitcond21.not.i, label %cfilter_recent_write_all_list.exit, label %7

7:                                                ; preds = %.lr.ph.split.us.i
  %8 = load ptr, ptr %.018.us.i, align 8
  %.not14.us.i = icmp eq ptr %8, null
  br i1 %.not14.us.i, label %12, label %9

9:                                                ; preds = %7
  %char0.us.i = load i8, ptr %8, align 1
  %.not15.us.i = icmp eq i8 %char0.us.i, 0
  br i1 %.not15.us.i, label %12, label %10

10:                                               ; preds = %9
  %11 = tail call i32 (ptr, i32, ptr, ...) @__fprintf_chk(ptr noundef %2, i32 noundef 2, ptr noundef nonnull @.str.135, ptr noundef nonnull %8)
  br label %12

12:                                               ; preds = %10, %9, %7
  %13 = getelementptr inbounds nuw i8, ptr %.018.us.i, i64 8
  %14 = load ptr, ptr %13, align 8
  %.not.us.i = icmp eq ptr %14, null
  br i1 %.not.us.i, label %cfilter_recent_write_all_list.exit, label %.lr.ph.split.us.i, !llvm.loop !8

.lr.ph.split.i:                                   ; preds = %.lr.ph.i, %21
  %.018.i = phi ptr [ %23, %21 ], [ %4, %.lr.ph.i ]
  %.01117.i = phi i32 [ %15, %21 ], [ 0, %.lr.ph.i ]
  %15 = add nuw nsw i32 %.01117.i, 1
  %exitcond.not.i = icmp eq i32 %.01117.i, 21
  br i1 %exitcond.not.i, label %cfilter_recent_write_all_list.exit, label %16

16:                                               ; preds = %.lr.ph.split.i
  %17 = load ptr, ptr %.018.i, align 8
  %.not14.i = icmp eq ptr %17, null
  br i1 %.not14.i, label %21, label %18

18:                                               ; preds = %16
  %char0.i = load i8, ptr %17, align 1
  %.not15.i = icmp eq i8 %char0.i, 0
  br i1 %.not15.i, label %21, label %19

19:                                               ; preds = %18
  %20 = tail call i32 (ptr, i32, ptr, ...) @__fprintf_chk(ptr noundef %2, i32 noundef 2, ptr noundef nonnull @.str.136, ptr noundef nonnull %0, ptr noundef nonnull %17)
  br label %21

21:                                               ; preds = %19, %18, %16
  %22 = getelementptr inbounds nuw i8, ptr %.018.i, i64 8
  %23 = load ptr, ptr %22, align 8
  %.not.i = icmp eq ptr %23, null
  br i1 %.not.i, label %cfilter_recent_write_all_list.exit, label %.lr.ph.split.i, !llvm.loop !8

cfilter_recent_write_all_list.exit:               ; preds = %.lr.ph.split.i, %21, %.lr.ph.split.us.i, %12, %3
  ret void
}